target datalayout = "e-m:e-p270:32:32-p271:32:32-p272:64:64-i64:64-i128:128-f80:128-n8:16:32:64-S128"
target triple = "x86_64-pc-linux-gnu"

%struct.buf_mem_st = type { i64, ptr, i64, i64 }

@.str = private unnamed_addr constant [70 x i8] c"../openssl/providers/implementations/encode_decode/endecoder_common.c\00", align 1

; Function Attrs: nounwind uwtable
define i32 @ossl_read_der(ptr noundef %0, ptr noundef %1, ptr noundef %2, ptr noundef %3) #0 {
  %5 = alloca i32, align 4
  %6 = alloca ptr, align 8
  %7 = alloca ptr, align 8
  %8 = alloca ptr, align 8
  %9 = alloca ptr, align 8
  %10 = alloca ptr, align 8
  %11 = alloca ptr, align 8
  %12 = alloca i32, align 4
  %13 = alloca i32, align 4
  store ptr %0, ptr %6, align 8, !tbaa !21
  store ptr %1, ptr %7, align 8, !tbaa !23
  store ptr %2, ptr %8, align 8, !tbaa !25
  store ptr %3, ptr %9, align 8, !tbaa !27
  call void @llvm.lifetime.start.p0(i64 8, ptr %10) #4
  store ptr null, ptr %10, align 8, !tbaa !29
  call void @llvm.lifetime.start.p0(i64 8, ptr %11) #4
  %14 = load ptr, ptr %6, align 8, !tbaa !21
  %15 = load ptr, ptr %7, align 8, !tbaa !23
  %16 = call ptr @ossl_bio_new_from_core_bio(ptr noundef %14, ptr noundef %15)
  store ptr %16, ptr %11, align 8, !tbaa !31
  call void @llvm.lifetime.start.p0(i64 4, ptr %12) #4
  %17 = load ptr, ptr %11, align 8, !tbaa !31
  %18 = icmp eq ptr %17, null
  br i1 %18, label %19, label %20

19:                                               ; preds = %4
  store i32 0, ptr %5, align 4
  store i32 1, ptr %13, align 4
  br label %41

20:                                               ; preds = %4
  %21 = load ptr, ptr %11, align 8, !tbaa !31
  %22 = call i32 @asn1_d2i_read_bio(ptr noundef %21, ptr noundef %10)
  %23 = icmp sge i32 %22, 0
  %24 = zext i1 %23 to i32
  store i32 %24, ptr %12, align 4, !tbaa !18
  %25 = load i32, ptr %12, align 4, !tbaa !18
  %26 = icmp ne i32 %25, 0
  br i1 %26, label %27, label %37

27:                                               ; preds = %20
  %28 = load ptr, ptr %10, align 8, !tbaa !29
  %29 = getelementptr inbounds nuw %struct.buf_mem_st, ptr %28, i32 0, i32 1
  %30 = load ptr, ptr %29, align 8, !tbaa !33
  %31 = load ptr, ptr %8, align 8, !tbaa !25
  store ptr %30, ptr %31, align 8, !tbaa !37
  %32 = load ptr, ptr %10, align 8, !tbaa !29
  %33 = getelementptr inbounds nuw %struct.buf_mem_st, ptr %32, i32 0, i32 0
  %34 = load i64, ptr %33, align 8, !tbaa !38
  %35 = load ptr, ptr %9, align 8, !tbaa !27
  store i64 %34, ptr %35, align 8, !tbaa !39
  %36 = load ptr, ptr %10, align 8, !tbaa !29
  call void @CRYPTO_free(ptr noundef %36, ptr noundef @.str, i32 noundef 100)
  br label %37

37:                                               ; preds = %27, %20
  %38 = load ptr, ptr %11, align 8, !tbaa !31
  %39 = call i32 @BIO_free(ptr noundef %38)
  %40 = load i32, ptr %12, align 4, !tbaa !18
  store i32 %40, ptr %5, align 4
  store i32 1, ptr %13, align 4
  br label %41

41:                                               ; preds = %37, %19
  call void @llvm.lifetime.end.p0(i64 4, ptr %12) #4
  call void @llvm.lifetime.end.p0(i64 8, ptr %11) #4
  call void @llvm.lifetime.end.p0(i64 8, ptr %10) #4
  %42 = load i32, ptr %5, align 4
  ret i32 %42
}