; Function Attrs: nounwind uwtable
define range(i32 0, 2) i32 @ossl_read_der(ptr noundef %0, ptr noundef %1, ptr noundef writeonly captures(none) %2, ptr noundef writeonly captures(none) %3) local_unnamed_addr #1 {
  %5 = alloca ptr, align 8
  call void @llvm.lifetime.start.p0(i64 8, ptr nonnull %5) #4
  store ptr null, ptr %5, align 8, !tbaa !15
  %6 = tail call ptr @ossl_bio_new_from_core_bio(ptr noundef %0, ptr noundef %1) #4
  %7 = icmp eq ptr %6, null
  br i1 %7, label %19, label %8

8:                                                ; preds = %4
  %9 = call i32 @asn1_d2i_read_bio(ptr noundef nonnull %6, ptr noundef nonnull %5) #4
  %10 = icmp sgt i32 %9, -1
  %11 = zext i1 %10 to i32
  br i1 %10, label %12, label %17

12:                                               ; preds = %8
  %13 = load ptr, ptr %5, align 8, !tbaa !15
  %14 = getelementptr inbounds nuw i8, ptr %13, i64 8
  %15 = load ptr, ptr %14, align 8, !tbaa !17
  store ptr %15, ptr %2, align 8, !tbaa !21
  %16 = load i64, ptr %13, align 8, !tbaa !22
  store i64 %16, ptr %3, align 8, !tbaa !23
  call void @CRYPTO_free(ptr noundef nonnull %13, ptr noundef nonnull @.str, i32 noundef 100) #4
  br label %17

17:                                               ; preds = %12, %8
  %18 = call i32 @BIO_free(ptr noundef nonnull %6) #4
  br label %19

19:                                               ; preds = %4, %17
  %.0 = phi i32 [ %11, %17 ], [ 0, %4 ]
  call void @llvm.lifetime.end.p0(i64 8, ptr nonnull %5) #4
  ret i32 %.0
}